; Function Attrs: nounwind uwtable
define void @If_CutPrintTiming(ptr noundef readonly captures(none) %0, ptr noundef readonly captures(none) %1) local_unnamed_addr #0 {
  tail call void (i32, ptr, ...) @Abc_Print(i32 noundef 1, ptr noundef nonnull @.str.1)
  %3 = getelementptr inbounds nuw i8, ptr %1, i64 36
  %4 = getelementptr inbounds nuw i8, ptr %1, i64 28
  %5 = load i64, ptr %4, align 4
  %6 = and i64 %5, 4278190080
  %.not11 = icmp eq i64 %6, 0
  br i1 %.not11, label %.critedge, label %.lr.ph

.lr.ph:                                           ; preds = %2
  %7 = getelementptr i8, ptr %0, i64 40
  br label %8

8:                                                ; preds = %.lr.ph, %15
  %indvars.iv = phi i64 [ 0, %.lr.ph ], [ %indvars.iv.next, %15 ]
  %9 = getelementptr inbounds nuw [0 x i32], ptr %3, i64 0, i64 %indvars.iv
  %10 = load i32, ptr %9, align 4, !tbaa !14
  %.val = load ptr, ptr %7, align 8, !tbaa !92
  %11 = getelementptr i8, ptr %.val, i64 8
  %.val.val = load ptr, ptr %11, align 8, !tbaa !93
  %12 = sext i32 %10 to i64
  %13 = getelementptr inbounds ptr, ptr %.val.val, i64 %12
  %14 = load ptr, ptr %13, align 8, !tbaa !95
  %.not = icmp eq ptr %14, null
  br i1 %.not, label %.critedge, label %15

15:                                               ; preds = %8
  %16 = getelementptr inbounds nuw i8, ptr %14, i64 4
  %17 = load i32, ptr %16, align 4, !tbaa !96
  %18 = getelementptr inbounds nuw i8, ptr %14, i64 92
  %19 = load float, ptr %18, align 4, !tbaa !54
  %20 = fpext float %19 to double
  %21 = getelementptr inbounds nuw i8, ptr %14, i64 52
  %22 = load float, ptr %21, align 4, !tbaa !98
  %23 = fpext float %22 to double
  tail call void (i32, ptr, ...) @Abc_Print(i32 noundef 1, ptr noundef nonnull @.str.6, i32 noundef %17, double noundef %20, double noundef %23)
  %indvars.iv.next = add nuw nsw i64 %indvars.iv, 1
  %24 = load i64, ptr %4, align 4
  %25 = lshr i64 %24, 24
  %26 = and i64 %25, 255
  %27 = icmp samesign ult i64 %indvars.iv.next, %26
  br i1 %27, label %8, label %.critedge, !llvm.loop !99

.critedge:                                        ; preds = %8, %15, %2
  tail call void (i32, ptr, ...) @Abc_Print(i32 noundef 1, ptr noundef nonnull @.str.5)
  ret void
}